; Function Attrs: mustprogress uwtable
define hidden void @_ZN3smt12theory_array11display_idsERSojPKPNS_5enodeE(ptr noundef nonnull align 8 dereferenceable(8) %0, i32 noundef %1, ptr noundef readonly captures(none) %2) local_unnamed_addr #4 align 2 {
  %.not8 = icmp eq i32 %1, 0
  br i1 %.not8, label %._crit_edge, label %.lr.ph.preheader

.lr.ph.preheader:                                 ; preds = %3
  %wide.trip.count = zext i32 %1 to i64
  br label %.lr.ph

._crit_edge:                                      ; preds = %6, %3
  ret void

.lr.ph:                                           ; preds = %.lr.ph.preheader, %6
  %indvars.iv = phi i64 [ 0, %.lr.ph.preheader ], [ %indvars.iv.next, %6 ]
  %.not = icmp eq i64 %indvars.iv, 0
  br i1 %.not, label %6, label %4

4:                                                ; preds = %.lr.ph
  %5 = tail call noundef nonnull align 8 dereferenceable(8) ptr @_ZSt16__ostream_insertIcSt11char_traitsIcEERSt13basic_ostreamIT_T0_ES6_PKS3_l(ptr noundef nonnull align 8 dereferenceable(8) %0, ptr noundef nonnull @.str.7, i64 noundef 1)
  br label %6

6:                                                ; preds = %4, %.lr.ph
  %7 = tail call noundef nonnull align 8 dereferenceable(8) ptr @_ZSt16__ostream_insertIcSt11char_traitsIcEERSt13basic_ostreamIT_T0_ES6_PKS3_l(ptr noundef nonnull align 8 dereferenceable(8) %0, ptr noundef nonnull @.str.8, i64 noundef 1)
  %8 = getelementptr inbounds nuw ptr, ptr %2, i64 %indvars.iv
  %9 = load ptr, ptr %8, align 8, !tbaa !570
  %10 = load ptr, ptr %9, align 8, !tbaa !595
  %11 = load i32, ptr %10, align 4, !tbaa !625
  %12 = zext i32 %11 to i64
  %13 = tail call noundef nonnull align 8 dereferenceable(8) ptr @_ZNSo9_M_insertImEERSoT_(ptr noundef nonnull align 8 dereferenceable(8) %0, i64 noundef %12)
  %indvars.iv.next = add nuw nsw i64 %indvars.iv, 1
  %exitcond.not = icmp eq i64 %indvars.iv.next, %wide.trip.count
  br i1 %exitcond.not, label %._crit_edge, label %.lr.ph, !llvm.loop !639
}